; Function Attrs: mustprogress nofree norecurse nounwind willreturn memory(readwrite, inaccessiblemem: none) uwtable
define void @_ZNK8QuantLib5Libor13jointCalendarEv(ptr dead_on_unwind noalias nocapture writable writeonly sret(%"class.QuantLib::Calendar") align 8 %agg.result, ptr nocapture noundef nonnull readonly align 8 dereferenceable(304) %this) local_unnamed_addr #10 align 2 personality ptr @__gxx_personality_v0 {
entry:
  %jointCalendar_ = getelementptr inbounds nuw i8, ptr %this, i64 288
  %0 = load ptr, ptr %jointCalendar_, align 8, !tbaa !52
  store ptr %0, ptr %agg.result, align 8, !tbaa !52
  %pn.i.i = getelementptr inbounds nuw i8, ptr %agg.result, i64 8
  %pn3.i.i = getelementptr inbounds nuw i8, ptr %this, i64 296
  %1 = load ptr, ptr %pn3.i.i, align 8, !tbaa !44
  store ptr %1, ptr %pn.i.i, align 8, !tbaa !44
  %cmp.not.i.i.i = icmp eq ptr %1, null
  br i1 %cmp.not.i.i.i, label %_ZN8QuantLib8CalendarC2ERKS0_.exit, label %if.then.i.i.i

if.then.i.i.i:                                    ; preds = %entry
  %use_count_.i.i.i.i = getelementptr inbounds nuw i8, ptr %1, i64 8
  %2 = atomicrmw add ptr %use_count_.i.i.i.i, i32 1 monotonic, align 4
  br label %_ZN8QuantLib8CalendarC2ERKS0_.exit

_ZN8QuantLib8CalendarC2ERKS0_.exit:               ; preds = %entry, %if.then.i.i.i
  ret void
}